target datalayout = "e-m:e-p270:32:32-p271:32:32-p272:64:64-i64:64-i128:128-f80:128-n8:16:32:64-S128"
target triple = "x86_64-pc-linux-gnu"

%"class.llvm::SmallVectorBase" = type { ptr, i32, i32 }
%"class.llvm::Register" = type { i32 }
%"class.llvm::LiveRange" = type { %"class.llvm::SmallVector.81", %"class.llvm::SmallVector.86", %"class.std::unique_ptr.91" }
%"class.llvm::SmallVector.81" = type { %"class.llvm::SmallVectorImpl.82", %"struct.llvm::SmallVectorStorage.85" }
%"class.llvm::SmallVectorImpl.82" = type { %"class.llvm::SmallVectorTemplateBase.83" }
%"class.llvm::SmallVectorTemplateBase.83" = type { %"class.llvm::SmallVectorTemplateCommon.84" }
%"class.llvm::SmallVectorTemplateCommon.84" = type { %"class.llvm::SmallVectorBase" }
%"struct.llvm::SmallVectorStorage.85" = type { [48 x i8] }
%"class.llvm::SmallVector.86" = type { %"class.llvm::SmallVectorImpl.87", %"struct.llvm::SmallVectorStorage.90" }
%"class.llvm::SmallVectorImpl.87" = type { %"class.llvm::SmallVectorTemplateBase.88" }
%"class.llvm::SmallVectorTemplateBase.88" = type { %"class.llvm::SmallVectorTemplateCommon.89" }
%"class.llvm::SmallVectorTemplateCommon.89" = type { %"class.llvm::SmallVectorBase" }
%"struct.llvm::SmallVectorStorage.90" = type { [16 x i8] }
%"class.std::unique_ptr.91" = type { %"struct.std::__uniq_ptr_data.92" }
%"struct.std::__uniq_ptr_data.92" = type { %"class.std::__uniq_ptr_impl.93" }
%"class.std::__uniq_ptr_impl.93" = type { %"class.std::tuple.94" }
%"class.std::tuple.94" = type { %"struct.std::_Tuple_impl.95" }
%"struct.std::_Tuple_impl.95" = type { %"struct.std::_Head_base.98" }
%"struct.std::_Head_base.98" = type { ptr }
%"class.llvm::LiveInterval" = type { %"class.llvm::LiveRange", ptr, %"class.llvm::Register", float }
%"struct.llvm::LaneBitmask" = type { i64 }
%"class.llvm::iterator_range.382" = type { %"class.llvm::LiveInterval::SingleLinkedListIterator.383", %"class.llvm::LiveInterval::SingleLinkedListIterator.383" }
%"class.llvm::LiveInterval::SingleLinkedListIterator.383" = type { ptr }
%"class.llvm::LiveInterval::SubRange" = type { %"class.llvm::LiveRange", ptr, %"struct.llvm::LaneBitmask" }

; Function Attrs: mustprogress nounwind uwtable
define linkonce_odr hidden void @_ZN4llvm14iterator_rangeINS_12LiveInterval24SingleLinkedListIteratorINS1_8SubRangeEEEEC2ES4_S4_(ptr noundef nonnull align 8 dereferenceable(16) %0, ptr %1, ptr %2) unnamed_addr #1 comdat align 2 {
  %4 = alloca %"class.llvm::LiveInterval::SingleLinkedListIterator.383", align 8
  %5 = alloca %"class.llvm::LiveInterval::SingleLinkedListIterator.383", align 8
  %6 = alloca ptr, align 8
  %7 = getelementptr inbounds nuw %"class.llvm::LiveInterval::SingleLinkedListIterator.383", ptr %4, i32 0, i32 0
  store ptr %1, ptr %7, align 8
  %8 = getelementptr inbounds nuw %"class.llvm::LiveInterval::SingleLinkedListIterator.383", ptr %5, i32 0, i32 0
  store ptr %2, ptr %8, align 8
  store ptr %0, ptr %6, align 8
  %9 = load ptr, ptr %6, align 8
  %10 = getelementptr inbounds nuw %"class.llvm::iterator_range.382", ptr %9, i32 0, i32 0
  call void @llvm.memcpy.p0.p0.i64(ptr align 8 %10, ptr align 8 %4, i64 8, i1 false)
  %11 = getelementptr inbounds nuw %"class.llvm::iterator_range.382", ptr %9, i32 0, i32 1
  call void @llvm.memcpy.p0.p0.i64(ptr align 8 %11, ptr align 8 %5, i64 8, i1 false)
  ret void
}

; Function Attrs: mustprogress nounwind uwtable
define linkonce_odr hidden void @_ZN4llvm12LiveInterval24SingleLinkedListIteratorINS0_8SubRangeEEC2EPS2_(ptr noundef nonnull align 8 dereferenceable(8) %0, ptr noundef %1) unnamed_addr #1 comdat align 2 {
  %3 = alloca ptr, align 8
  %4 = alloca ptr, align 8
  store ptr %0, ptr %3, align 8
  store ptr %1, ptr %4, align 8
  %5 = load ptr, ptr %3, align 8
  %6 = getelementptr inbounds nuw %"class.llvm::LiveInterval::SingleLinkedListIterator.383", ptr %5, i32 0, i32 0
  %7 = load ptr, ptr %4, align 8
  store ptr %7, ptr %6, align 8
  ret void
}

; Function Attrs: mustprogress nounwind uwtable
define linkonce_odr hidden noundef ptr @_ZNK4llvm12LiveInterval24SingleLinkedListIteratorINS0_8SubRangeEEptEv(ptr noundef nonnull align 8 dereferenceable(8) %0) #1 comdat align 2 {
  %2 = alloca ptr, align 8
  store ptr %0, ptr %2, align 8
  %3 = load ptr, ptr %2, align 8
  %4 = getelementptr inbounds nuw %"class.llvm::LiveInterval::SingleLinkedListIterator.383", ptr %3, i32 0, i32 0
  %5 = load ptr, ptr %4, align 8
  ret ptr %5
}

; Function Attrs: mustprogress nounwind uwtable
define linkonce_odr { ptr, ptr } @_ZN4llvm10make_rangeINS_12LiveInterval24SingleLinkedListIteratorINS1_8SubRangeEEEEENS_14iterator_rangeIT_EES6_S6_(ptr %0, ptr %1) #1 comdat {
  %3 = alloca %"class.llvm::iterator_range.382", align 8
  %4 = alloca %"class.llvm::LiveInterval::SingleLinkedListIterator.383", align 8
  %5 = alloca %"class.llvm::LiveInterval::SingleLinkedListIterator.383", align 8
  %6 = alloca %"class.llvm::LiveInterval::SingleLinkedListIterator.383", align 8
  %7 = alloca %"class.llvm::LiveInterval::SingleLinkedListIterator.383", align 8
  %8 = getelementptr inbounds nuw %"class.llvm::LiveInterval::SingleLinkedListIterator.383", ptr %4, i32 0, i32 0
  store ptr %0, ptr %8, align 8
  %9 = getelementptr inbounds nuw %"class.llvm::LiveInterval::SingleLinkedListIterator.383", ptr %5, i32 0, i32 0
  store ptr %1, ptr %9, align 8
  call void @llvm.memcpy.p0.p0.i64(ptr align 8 %6, ptr align 8 %4, i64 8, i1 false)
  call void @llvm.memcpy.p0.p0.i64(ptr align 8 %7, ptr align 8 %5, i64 8, i1 false)
  %10 = getelementptr inbounds nuw %"class.llvm::LiveInterval::SingleLinkedListIterator.383", ptr %6, i32 0, i32 0
  %11 = load ptr, ptr %10, align 8
  %12 = getelementptr inbounds nuw %"class.llvm::LiveInterval::SingleLinkedListIterator.383", ptr %7, i32 0, i32 0
  %13 = load ptr, ptr %12, align 8
  call void @_ZN4llvm14iterator_rangeINS_12LiveInterval24SingleLinkedListIteratorINS1_8SubRangeEEEEC2ES4_S4_(ptr noundef nonnull align 8 dereferenceable(16) %3, ptr %11, ptr %13)
  %14 = load { ptr, ptr }, ptr %3, align 8
  ret { ptr, ptr } %14
}

; Function Attrs: mustprogress nounwind uwtable
define linkonce_odr hidden ptr @_ZN4llvm12LiveInterval12subrange_endEv(ptr noundef nonnull align 8 dereferenceable(120) %0) #1 comdat align 2 {
  %2 = alloca %"class.llvm::LiveInterval::SingleLinkedListIterator.383", align 8
  %3 = alloca ptr, align 8
  store ptr %0, ptr %3, align 8
  call void @_ZN4llvm12LiveInterval24SingleLinkedListIteratorINS0_8SubRangeEEC2EPS2_(ptr noundef nonnull align 8 dereferenceable(8) %2, ptr noundef null)
  %4 = getelementptr inbounds nuw %"class.llvm::LiveInterval::SingleLinkedListIterator.383", ptr %2, i32 0, i32 0
  %5 = load ptr, ptr %4, align 8
  ret ptr %5
}

; Function Attrs: mustprogress nounwind uwtable
define linkonce_odr hidden ptr @_ZN4llvm12LiveInterval14subrange_beginEv(ptr noundef nonnull align 8 dereferenceable(120) %0) #1 comdat align 2 {
  %2 = alloca %"class.llvm::LiveInterval::SingleLinkedListIterator.383", align 8
  %3 = alloca ptr, align 8
  store ptr %0, ptr %3, align 8
  %4 = load ptr, ptr %3, align 8
  %5 = getelementptr inbounds nuw %"class.llvm::LiveInterval", ptr %4, i32 0, i32 1
  %6 = load ptr, ptr %5, align 8
  call void @_ZN4llvm12LiveInterval24SingleLinkedListIteratorINS0_8SubRangeEEC2EPS2_(ptr noundef nonnull align 8 dereferenceable(8) %2, ptr noundef %6)
  %7 = getelementptr inbounds nuw %"class.llvm::LiveInterval::SingleLinkedListIterator.383", ptr %2, i32 0, i32 0
  %8 = load ptr, ptr %7, align 8
  ret ptr %8
}

; Function Attrs: mustprogress nounwind uwtable
define linkonce_odr hidden noundef nonnull align 8 dereferenceable(8) ptr @_ZN4llvm12LiveInterval24SingleLinkedListIteratorINS0_8SubRangeEEppEv(ptr noundef nonnull align 8 dereferenceable(8) %0) #1 comdat align 2 {
  %2 = alloca ptr, align 8
  store ptr %0, ptr %2, align 8
  %3 = load ptr, ptr %2, align 8
  %4 = getelementptr inbounds nuw %"class.llvm::LiveInterval::SingleLinkedListIterator.383", ptr %3, i32 0, i32 0
  %5 = load ptr, ptr %4, align 8
  %6 = getelementptr inbounds nuw %"class.llvm::LiveInterval::SubRange", ptr %5, i32 0, i32 1
  %7 = load ptr, ptr %6, align 8
  %8 = getelementptr inbounds nuw %"class.llvm::LiveInterval::SingleLinkedListIterator.383", ptr %3, i32 0, i32 0
  store ptr %7, ptr %8, align 8
  ret ptr %3
}

; Function Attrs: mustprogress nounwind uwtable
define linkonce_odr hidden noundef zeroext i1 @_ZNK4llvm11LaneBitmaskeqES0_(ptr noundef nonnull align 8 dereferenceable(8) %0, i64 %1) #1 comdat align 2 {
  %3 = alloca %"struct.llvm::LaneBitmask", align 8
  %4 = alloca ptr, align 8
  %5 = getelementptr inbounds nuw %"struct.llvm::LaneBitmask", ptr %3, i32 0, i32 0
  store i64 %1, ptr %5, align 8
  store ptr %0, ptr %4, align 8
  %6 = load ptr, ptr %4, align 8
  %7 = getelementptr inbounds nuw %"struct.llvm::LaneBitmask", ptr %6, i32 0, i32 0
  %8 = load i64, ptr %7, align 8
  %9 = getelementptr inbounds nuw %"struct.llvm::LaneBitmask", ptr %3, i32 0, i32 0
  %10 = load i64, ptr %9, align 8
  %11 = icmp eq i64 %8, %10
  ret i1 %11
}

; Function Attrs: mustprogress nounwind uwtable
define linkonce_odr hidden noundef nonnull align 8 dereferenceable(120) ptr @_ZNK4llvm12LiveInterval24SingleLinkedListIteratorINS0_8SubRangeEEdeEv(ptr noundef nonnull align 8 dereferenceable(8) %0) #1 comdat align 2 {
  %2 = alloca ptr, align 8
  store ptr %0, ptr %2, align 8
  %3 = load ptr, ptr %2, align 8
  %4 = getelementptr inbounds nuw %"class.llvm::LiveInterval::SingleLinkedListIterator.383", ptr %3, i32 0, i32 0
  %5 = load ptr, ptr %4, align 8
  ret ptr %5
}

; Function Attrs: mustprogress nounwind uwtable
define linkonce_odr hidden noundef zeroext i1 @_ZNK4llvm12LiveInterval24SingleLinkedListIteratorINS0_8SubRangeEEneERKS3_(ptr noundef nonnull align 8 dereferenceable(8) %0, ptr noundef nonnull align 8 dereferenceable(8) %1) #1 comdat align 2 {
  %3 = alloca ptr, align 8
  %4 = alloca ptr, align 8
  store ptr %0, ptr %3, align 8
  store ptr %1, ptr %4, align 8
  %5 = load ptr, ptr %3, align 8
  %6 = getelementptr inbounds nuw %"class.llvm::LiveInterval::SingleLinkedListIterator.383", ptr %5, i32 0, i32 0
  %7 = load ptr, ptr %6, align 8
  %8 = load ptr, ptr %4, align 8
  %9 = call noundef ptr @_ZNK4llvm12LiveInterval24SingleLinkedListIteratorINS0_8SubRangeEEptEv(ptr noundef nonnull align 8 dereferenceable(8) %8)
  %10 = icmp ne ptr %7, %9
  ret i1 %10
}

; Function Attrs: mustprogress nounwind uwtable
define linkonce_odr hidden ptr @_ZNK4llvm14iterator_rangeINS_12LiveInterval24SingleLinkedListIteratorINS1_8SubRangeEEEE3endEv(ptr noundef nonnull align 8 dereferenceable(16) %0) #1 comdat align 2 {
  %2 = alloca %"class.llvm::LiveInterval::SingleLinkedListIterator.383", align 8
  %3 = alloca ptr, align 8
  store ptr %0, ptr %3, align 8
  %4 = load ptr, ptr %3, align 8
  %5 = getelementptr inbounds nuw %"class.llvm::iterator_range.382", ptr %4, i32 0, i32 1
  call void @llvm.memcpy.p0.p0.i64(ptr align 8 %2, ptr align 8 %5, i64 8, i1 false)
  %6 = getelementptr inbounds nuw %"class.llvm::LiveInterval::SingleLinkedListIterator.383", ptr %2, i32 0, i32 0
  %7 = load ptr, ptr %6, align 8
  ret ptr %7
}

; Function Attrs: mustprogress nounwind uwtable
define linkonce_odr hidden ptr @_ZNK4llvm14iterator_rangeINS_12LiveInterval24SingleLinkedListIteratorINS1_8SubRangeEEEE5beginEv(ptr noundef nonnull align 8 dereferenceable(16) %0) #1 comdat align 2 {
  %2 = alloca %"class.llvm::LiveInterval::SingleLinkedListIterator.383", align 8
  %3 = alloca ptr, align 8
  store ptr %0, ptr %3, align 8
  %4 = load ptr, ptr %3, align 8
  %5 = getelementptr inbounds nuw %"class.llvm::iterator_range.382", ptr %4, i32 0, i32 0
  call void @llvm.memcpy.p0.p0.i64(ptr align 8 %2, ptr align 8 %5, i64 8, i1 false)
  %6 = getelementptr inbounds nuw %"class.llvm::LiveInterval::SingleLinkedListIterator.383", ptr %2, i32 0, i32 0
  %7 = load ptr, ptr %6, align 8
  ret ptr %7
}

; Function Attrs: mustprogress nounwind uwtable
define linkonce_odr hidden { ptr, ptr } @_ZN4llvm12LiveInterval9subrangesEv(ptr noundef nonnull align 8 dereferenceable(120) %0) #1 comdat align 2 {
  %2 = alloca %"class.llvm::iterator_range.382", align 8
  %3 = alloca ptr, align 8
  %4 = alloca %"class.llvm::LiveInterval::SingleLinkedListIterator.383", align 8
  %5 = alloca %"class.llvm::LiveInterval::SingleLinkedListIterator.383", align 8
  store ptr %0, ptr %3, align 8
  %6 = load ptr, ptr %3, align 8
  %7 = call ptr @_ZN4llvm12LiveInterval14subrange_beginEv(ptr noundef nonnull align 8 dereferenceable(120) %6)
  %8 = getelementptr inbounds nuw %"class.llvm::LiveInterval::SingleLinkedListIterator.383", ptr %4, i32 0, i32 0
  store ptr %7, ptr %8, align 8
  %9 = call ptr @_ZN4llvm12LiveInterval12subrange_endEv(ptr noundef nonnull align 8 dereferenceable(120) %6)
  %10 = getelementptr inbounds nuw %"class.llvm::LiveInterval::SingleLinkedListIterator.383", ptr %5, i32 0, i32 0
  store ptr %9, ptr %10, align 8
  %11 = getelementptr inbounds nuw %"class.llvm::LiveInterval::SingleLinkedListIterator.383", ptr %4, i32 0, i32 0
  %12 = load ptr, ptr %11, align 8
  %13 = getelementptr inbounds nuw %"class.llvm::LiveInterval::SingleLinkedListIterator.383", ptr %5, i32 0, i32 0
  %14 = load ptr, ptr %13, align 8
  %15 = call { ptr, ptr } @_ZN4llvm10make_rangeINS_12LiveInterval24SingleLinkedListIteratorINS1_8SubRangeEEEEENS_14iterator_rangeIT_EES6_S6_(ptr %12, ptr %14)
  %16 = getelementptr inbounds nuw { ptr, ptr }, ptr %2, i32 0, i32 0
  %17 = extractvalue { ptr, ptr } %15, 0
  store ptr %17, ptr %16, align 8
  %18 = getelementptr inbounds nuw { ptr, ptr }, ptr %2, i32 0, i32 1
  %19 = extractvalue { ptr, ptr } %15, 1
  store ptr %19, ptr %18, align 8
  %20 = load { ptr, ptr }, ptr %2, align 8
  ret { ptr, ptr } %20
}

; Function Attrs: mustprogress nounwind uwtable
define linkonce_odr noundef nonnull align 8 dereferenceable(120) ptr @_Z15getSubrangeImplIN4llvm12LiveIntervalEERDaNS0_11LaneBitmaskERT_(i64 %0, ptr noundef nonnull align 8 dereferenceable(120) %1) #1 comdat {
  %3 = alloca %"struct.llvm::LaneBitmask", align 8
  %4 = alloca ptr, align 8
  %5 = alloca ptr, align 8
  %6 = alloca %"class.llvm::iterator_range.382", align 8
  %7 = alloca %"class.llvm::LiveInterval::SingleLinkedListIterator.383", align 8
  %8 = alloca %"class.llvm::LiveInterval::SingleLinkedListIterator.383", align 8
  %9 = alloca ptr, align 8
  %10 = alloca %"struct.llvm::LaneBitmask", align 8
  %11 = getelementptr inbounds nuw %"struct.llvm::LaneBitmask", ptr %3, i32 0, i32 0
  store i64 %0, ptr %11, align 8
  store ptr %1, ptr %4, align 8
  %12 = load ptr, ptr %4, align 8
  %13 = call { ptr, ptr } @_ZN4llvm12LiveInterval9subrangesEv(ptr noundef nonnull align 8 dereferenceable(120) %12)
  %14 = getelementptr inbounds nuw { ptr, ptr }, ptr %6, i32 0, i32 0
  %15 = extractvalue { ptr, ptr } %13, 0
  store ptr %15, ptr %14, align 8
  %16 = getelementptr inbounds nuw { ptr, ptr }, ptr %6, i32 0, i32 1
  %17 = extractvalue { ptr, ptr } %13, 1
  store ptr %17, ptr %16, align 8
  store ptr %6, ptr %5, align 8
  %18 = load ptr, ptr %5, align 8
  %19 = call ptr @_ZNK4llvm14iterator_rangeINS_12LiveInterval24SingleLinkedListIteratorINS1_8SubRangeEEEE5beginEv(ptr noundef nonnull align 8 dereferenceable(16) %18)
  %20 = getelementptr inbounds nuw %"class.llvm::LiveInterval::SingleLinkedListIterator.383", ptr %7, i32 0, i32 0
  store ptr %19, ptr %20, align 8
  %21 = load ptr, ptr %5, align 8
  %22 = call ptr @_ZNK4llvm14iterator_rangeINS_12LiveInterval24SingleLinkedListIteratorINS1_8SubRangeEEEE3endEv(ptr noundef nonnull align 8 dereferenceable(16) %21)
  %23 = getelementptr inbounds nuw %"class.llvm::LiveInterval::SingleLinkedListIterator.383", ptr %8, i32 0, i32 0
  store ptr %22, ptr %23, align 8
  br label %24

24:                                               ; preds = %36, %2
  %25 = call noundef zeroext i1 @_ZNK4llvm12LiveInterval24SingleLinkedListIteratorINS0_8SubRangeEEneERKS3_(ptr noundef nonnull align 8 dereferenceable(8) %7, ptr noundef nonnull align 8 dereferenceable(8) %8)
  br i1 %25, label %26, label %38

26:                                               ; preds = %24
  %27 = call noundef nonnull align 8 dereferenceable(120) ptr @_ZNK4llvm12LiveInterval24SingleLinkedListIteratorINS0_8SubRangeEEdeEv(ptr noundef nonnull align 8 dereferenceable(8) %7)
  store ptr %27, ptr %9, align 8
  %28 = load ptr, ptr %9, align 8
  %29 = getelementptr inbounds nuw %"class.llvm::LiveInterval::SubRange", ptr %28, i32 0, i32 2
  call void @llvm.memcpy.p0.p0.i64(ptr align 8 %10, ptr align 8 %3, i64 8, i1 false)
  %30 = getelementptr inbounds nuw %"struct.llvm::LaneBitmask", ptr %10, i32 0, i32 0
  %31 = load i64, ptr %30, align 8
  %32 = call noundef zeroext i1 @_ZNK4llvm11LaneBitmaskeqES0_(ptr noundef nonnull align 8 dereferenceable(8) %29, i64 %31)
  br i1 %32, label %33, label %35

33:                                               ; preds = %26
  %34 = load ptr, ptr %9, align 8
  ret ptr %34

35:                                               ; preds = %26
  br label %36

36:                                               ; preds = %35
  %37 = call noundef nonnull align 8 dereferenceable(8) ptr @_ZN4llvm12LiveInterval24SingleLinkedListIteratorINS0_8SubRangeEEppEv(ptr noundef nonnull align 8 dereferenceable(8) %7)
  br label %24

38:                                               ; preds = %24
  unreachable
}

; Function Attrs: mustprogress nounwind uwtable
define dso_local noundef nonnull align 8 dereferenceable(120) ptr @_Z23getSubRangeForMaskExactN4llvm11LaneBitmaskERNS_12LiveIntervalE(i64 %0, ptr noundef nonnull align 8 dereferenceable(120) %1) #1 {
  %3 = alloca %"struct.llvm::LaneBitmask", align 8
  %4 = alloca ptr, align 8
  %5 = alloca %"struct.llvm::LaneBitmask", align 8
  %6 = getelementptr inbounds nuw %"struct.llvm::LaneBitmask", ptr %3, i32 0, i32 0
  store i64 %0, ptr %6, align 8
  store ptr %1, ptr %4, align 8
  call void @llvm.memcpy.p0.p0.i64(ptr align 8 %5, ptr align 8 %3, i64 8, i1 false)
  %7 = load ptr, ptr %4, align 8
  %8 = getelementptr inbounds nuw %"struct.llvm::LaneBitmask", ptr %5, i32 0, i32 0
  %9 = load i64, ptr %8, align 8
  %10 = call noundef nonnull align 8 dereferenceable(120) ptr @_Z15getSubrangeImplIN4llvm12LiveIntervalEERDaNS0_11LaneBitmaskERT_(i64 %9, ptr noundef nonnull align 8 dereferenceable(120) %7)
  ret ptr %10
}