; Function Attrs: mustprogress nofree norecurse nosync nounwind willreturn memory(read, inaccessiblemem: none) uwtable
define dso_local noundef nonnull align 8 dereferenceable(120) ptr @_Z23getSubRangeForMaskExactN4llvm11LaneBitmaskERNS_12LiveIntervalE(i64 %0, ptr noundef nonnull readonly align 8 captures(none) dereferenceable(120) %1) local_unnamed_addr #4 {
  br label %3

3:                                                ; preds = %3, %2
  %.pn.i = phi ptr [ %1, %2 ], [ %.sroa.07.0.i, %3 ]
  %.sroa.07.0.in.i = getelementptr inbounds nuw i8, ptr %.pn.i, i64 104
  %.sroa.07.0.i = load ptr, ptr %.sroa.07.0.in.i, align 8, !nonnull !23, !noundef !23
  %4 = getelementptr inbounds nuw i8, ptr %.sroa.07.0.i, i64 112
  %5 = load i64, ptr %4, align 8
  %6 = icmp eq i64 %5, %0
  br i1 %6, label %_Z15getSubrangeImplIN4llvm12LiveIntervalEERDaNS0_11LaneBitmaskERT_.exit, label %3

_Z15getSubrangeImplIN4llvm12LiveIntervalEERDaNS0_11LaneBitmaskERT_.exit: ; preds = %3
  ret ptr %.sroa.07.0.i
}